; Function Attrs: mustprogress uwtable
define dso_local void @_ZN7doctest6String4copyERKS0_(ptr noundef nonnull writeonly align 8 captures(none) dereferenceable(24) initializes((23, 24)) %0, ptr noundef nonnull readonly align 8 captures(none) dereferenceable(24) %1) local_unnamed_addr #8 align 2 {
  %3 = getelementptr inbounds nuw i8, ptr %1, i64 23
  %4 = load i8, ptr %3, align 1, !tbaa !38
  %5 = icmp sgt i8 %4, -1
  br i1 %5, label %6, label %7

6:                                                ; preds = %2
  tail call void @llvm.memcpy.p0.p0.i64(ptr noundef nonnull align 8 dereferenceable(24) %0, ptr noundef nonnull align 8 dereferenceable(24) %1, i64 24, i1 false)
  br label %29

7:                                                ; preds = %2
  %8 = getelementptr inbounds nuw i8, ptr %1, i64 8
  %9 = load i32, ptr %8, align 8, !tbaa !38
  %10 = icmp ult i32 %9, 24
  br i1 %10, label %11, label %17

11:                                               ; preds = %7
  %12 = zext nneg i32 %9 to i64
  %13 = getelementptr inbounds nuw [24 x i8], ptr %0, i64 0, i64 %12
  store i8 0, ptr %13, align 1, !tbaa !38
  %14 = trunc nuw i32 %9 to i8
  %15 = sub nuw nsw i8 23, %14
  %16 = getelementptr inbounds nuw i8, ptr %0, i64 23
  store i8 %15, ptr %16, align 1, !tbaa !38
  br label %_ZN7doctest6String8allocateEj.exit

17:                                               ; preds = %7
  %18 = getelementptr inbounds nuw i8, ptr %0, i64 23
  store i8 -128, ptr %18, align 1, !tbaa !38
  %19 = getelementptr inbounds nuw i8, ptr %0, i64 8
  store i32 %9, ptr %19, align 8, !tbaa !38
  %20 = add i32 %9, 1
  %21 = getelementptr inbounds nuw i8, ptr %0, i64 12
  store i32 %20, ptr %21, align 4, !tbaa !38
  %22 = zext i32 %20 to i64
  %23 = tail call noalias noundef nonnull ptr @_Znam(i64 noundef %22) #51
  store ptr %23, ptr %0, align 8, !tbaa !38
  %24 = zext i32 %9 to i64
  %25 = getelementptr inbounds nuw i8, ptr %23, i64 %24
  store i8 0, ptr %25, align 1, !tbaa !38
  br label %_ZN7doctest6String8allocateEj.exit

_ZN7doctest6String8allocateEj.exit:               ; preds = %11, %17
  %.0.i = phi ptr [ %0, %11 ], [ %23, %17 ]
  %26 = load ptr, ptr %1, align 8, !tbaa !38
  %27 = load i32, ptr %8, align 8, !tbaa !38
  %28 = zext i32 %27 to i64
  tail call void @llvm.memcpy.p0.p0.i64(ptr nonnull align 1 %.0.i, ptr align 1 %26, i64 %28, i1 false)
  br label %29

29:                                               ; preds = %_ZN7doctest6String8allocateEj.exit, %6
  ret void
}